target datalayout = "e-m:e-p270:32:32-p271:32:32-p272:64:64-i64:64-i128:128-f80:128-n8:16:32:64-S128"
target triple = "x86_64-pc-linux-gnu"

%struct.cb_tree = type { ptr }
%struct.cb_node = type { [2 x ptr], i32, i8, [0 x i8] }

; Function Attrs: nounwind uwtable
define internal ptr @cb_node_of(ptr noundef %0) #0 {
  %2 = alloca ptr, align 8
  store ptr %0, ptr %2, align 8, !tbaa !25
  %3 = load ptr, ptr %2, align 8, !tbaa !25
  %4 = ptrtoint ptr %3 to i64
  %5 = sub i64 %4, 1
  %6 = inttoptr i64 %5 to ptr
  ret ptr %6
}

; Function Attrs: nounwind uwtable
define internal ptr @cb_internal_best_match(ptr noundef %0, ptr noundef %1, i64 noundef %2) #0 {
  %4 = alloca ptr, align 8
  %5 = alloca ptr, align 8
  %6 = alloca i64, align 8
  %7 = alloca ptr, align 8
  %8 = alloca i8, align 1
  %9 = alloca i64, align 8
  store ptr %0, ptr %4, align 8, !tbaa !9
  store ptr %1, ptr %5, align 8, !tbaa !22
  store i64 %2, ptr %6, align 8, !tbaa !11
  br label %10

10:                                               ; preds = %34, %3
  %11 = load ptr, ptr %4, align 8, !tbaa !9
  %12 = ptrtoint ptr %11 to i64
  %13 = and i64 1, %12
  %14 = icmp ne i64 %13, 0
  br i1 %14, label %15, label %52

15:                                               ; preds = %10
  call void @llvm.lifetime.start.p0(i64 8, ptr %7) #3
  %16 = load ptr, ptr %4, align 8, !tbaa !9
  %17 = call ptr @cb_node_of(ptr noundef %16)
  store ptr %17, ptr %7, align 8, !tbaa !9
  call void @llvm.lifetime.start.p0(i64 1, ptr %8) #3
  %18 = load ptr, ptr %7, align 8, !tbaa !9
  %19 = getelementptr inbounds nuw %struct.cb_node, ptr %18, i32 0, i32 1
  %20 = load i32, ptr %19, align 8, !tbaa !18
  %21 = zext i32 %20 to i64
  %22 = load i64, ptr %6, align 8, !tbaa !11
  %23 = icmp ult i64 %21, %22
  br i1 %23, label %24, label %33

24:                                               ; preds = %15
  %25 = load ptr, ptr %5, align 8, !tbaa !22
  %26 = load ptr, ptr %7, align 8, !tbaa !9
  %27 = getelementptr inbounds nuw %struct.cb_node, ptr %26, i32 0, i32 1
  %28 = load i32, ptr %27, align 8, !tbaa !18
  %29 = zext i32 %28 to i64
  %30 = getelementptr inbounds nuw i8, ptr %25, i64 %29
  %31 = load i8, ptr %30, align 1, !tbaa !15
  %32 = zext i8 %31 to i32
  br label %34

33:                                               ; preds = %15
  br label %34

34:                                               ; preds = %33, %24
  %35 = phi i32 [ %32, %24 ], [ 0, %33 ]
  %36 = trunc i32 %35 to i8
  store i8 %36, ptr %8, align 1, !tbaa !15
  call void @llvm.lifetime.start.p0(i64 8, ptr %9) #3
  %37 = load ptr, ptr %7, align 8, !tbaa !9
  %38 = getelementptr inbounds nuw %struct.cb_node, ptr %37, i32 0, i32 2
  %39 = load i8, ptr %38, align 4, !tbaa !15
  %40 = zext i8 %39 to i32
  %41 = load i8, ptr %8, align 1, !tbaa !15
  %42 = zext i8 %41 to i32
  %43 = or i32 %40, %42
  %44 = add nsw i32 1, %43
  %45 = ashr i32 %44, 8
  %46 = sext i32 %45 to i64
  store i64 %46, ptr %9, align 8, !tbaa !11
  %47 = load ptr, ptr %7, align 8, !tbaa !9
  %48 = getelementptr inbounds nuw %struct.cb_node, ptr %47, i32 0, i32 0
  %49 = load i64, ptr %9, align 8, !tbaa !11
  %50 = getelementptr inbounds nuw [2 x ptr], ptr %48, i64 0, i64 %49
  %51 = load ptr, ptr %50, align 8, !tbaa !9
  store ptr %51, ptr %4, align 8, !tbaa !9
  call void @llvm.lifetime.end.p0(i64 8, ptr %9) #3
  call void @llvm.lifetime.end.p0(i64 1, ptr %8) #3
  call void @llvm.lifetime.end.p0(i64 8, ptr %7) #3
  br label %10, !llvm.loop !24

52:                                               ; preds = %10
  %53 = load ptr, ptr %4, align 8, !tbaa !9
  ret ptr %53
}

; Function Attrs: nounwind uwtable
define dso_local ptr @cb_lookup(ptr noundef %0, ptr noundef %1, i64 noundef %2) #0 {
  %4 = alloca ptr, align 8
  %5 = alloca ptr, align 8
  %6 = alloca i64, align 8
  %7 = alloca ptr, align 8
  store ptr %0, ptr %4, align 8, !tbaa !4
  store ptr %1, ptr %5, align 8, !tbaa !22
  store i64 %2, ptr %6, align 8, !tbaa !11
  call void @llvm.lifetime.start.p0(i64 8, ptr %7) #3
  %8 = load ptr, ptr %4, align 8, !tbaa !4
  %9 = getelementptr inbounds nuw %struct.cb_tree, ptr %8, i32 0, i32 0
  %10 = load ptr, ptr %9, align 8, !tbaa !13
  %11 = load ptr, ptr %5, align 8, !tbaa !22
  %12 = load i64, ptr %6, align 8, !tbaa !11
  %13 = call ptr @cb_internal_best_match(ptr noundef %10, ptr noundef %11, i64 noundef %12)
  store ptr %13, ptr %7, align 8, !tbaa !9
  %14 = load ptr, ptr %7, align 8, !tbaa !9
  %15 = icmp ne ptr %14, null
  br i1 %15, label %16, label %26

16:                                               ; preds = %3
  %17 = load ptr, ptr %7, align 8, !tbaa !9
  %18 = getelementptr inbounds nuw %struct.cb_node, ptr %17, i32 0, i32 3
  %19 = getelementptr inbounds [0 x i8], ptr %18, i64 0, i64 0
  %20 = load ptr, ptr %5, align 8, !tbaa !22
  %21 = load i64, ptr %6, align 8, !tbaa !11
  %22 = call i32 @memcmp(ptr noundef %19, ptr noundef %20, i64 noundef %21) #4
  %23 = icmp ne i32 %22, 0
  br i1 %23, label %26, label %24

24:                                               ; preds = %16
  %25 = load ptr, ptr %7, align 8, !tbaa !9
  br label %27

26:                                               ; preds = %16, %3
  br label %27

27:                                               ; preds = %26, %24
  %28 = phi ptr [ %25, %24 ], [ null, %26 ]
  call void @llvm.lifetime.end.p0(i64 8, ptr %7) #3
  ret ptr %28
}