; Function Attrs: nofree nounwind memory(read, inaccessiblemem: none) uwtable
define dso_local ptr @cb_lookup(ptr noundef readonly captures(none) %0, ptr noundef readonly captures(none) %1, i64 noundef %2) local_unnamed_addr #1 {
  %4 = load ptr, ptr %0, align 8, !tbaa !4
  %5 = ptrtoint ptr %4 to i64
  %6 = and i64 %5, 1
  %.not11.i = icmp eq i64 %6, 0
  br i1 %.not11.i, label %cb_internal_best_match.exit, label %.lr.ph.i

.lr.ph.i:                                         ; preds = %3, %18
  %7 = phi i64 [ %28, %18 ], [ %5, %3 ]
  %8 = add nsw i64 %7, -1
  %9 = inttoptr i64 %8 to ptr
  %10 = getelementptr inbounds nuw i8, ptr %9, i64 16
  %11 = load i32, ptr %10, align 8, !tbaa !10
  %12 = zext i32 %11 to i64
  %13 = icmp ugt i64 %2, %12
  br i1 %13, label %14, label %18

14:                                               ; preds = %.lr.ph.i
  %15 = getelementptr inbounds nuw i8, ptr %1, i64 %12
  %16 = load i8, ptr %15, align 1, !tbaa !12
  %17 = zext i8 %16 to i64
  br label %18

18:                                               ; preds = %14, %.lr.ph.i
  %19 = phi i64 [ %17, %14 ], [ 0, %.lr.ph.i ]
  %20 = getelementptr inbounds nuw i8, ptr %9, i64 20
  %21 = load i8, ptr %20, align 4, !tbaa !12
  %22 = zext i8 %21 to i64
  %23 = or i64 %19, %22
  %24 = add nuw nsw i64 %23, 1
  %25 = lshr i64 %24, 8
  %26 = getelementptr inbounds nuw [2 x ptr], ptr %9, i64 0, i64 %25
  %27 = load ptr, ptr %26, align 8, !tbaa !13
  %28 = ptrtoint ptr %27 to i64
  %29 = and i64 %28, 1
  %.not.i = icmp eq i64 %29, 0
  br i1 %.not.i, label %cb_internal_best_match.exit, label %.lr.ph.i, !llvm.loop !14

cb_internal_best_match.exit:                      ; preds = %18, %3
  %.0.lcssa.i = phi ptr [ %4, %3 ], [ %27, %18 ]
  %.not = icmp eq ptr %.0.lcssa.i, null
  br i1 %.not, label %32, label %30

30:                                               ; preds = %cb_internal_best_match.exit
  %31 = getelementptr inbounds nuw i8, ptr %.0.lcssa.i, i64 21
  %bcmp = tail call i32 @bcmp(ptr nonnull %31, ptr %1, i64 %2)
  %.not7 = icmp eq i32 %bcmp, 0
  %spec.select = select i1 %.not7, ptr %.0.lcssa.i, ptr null
  br label %32

32:                                               ; preds = %30, %cb_internal_best_match.exit
  %33 = phi ptr [ null, %cb_internal_best_match.exit ], [ %spec.select, %30 ]
  ret ptr %33
}